target datalayout = "e-m:e-p270:32:32-p271:32:32-p272:64:64-i64:64-i128:128-f80:128-n8:16:32:64-S128"
target triple = "x86_64-pc-linux-gnu"

@.str = private unnamed_addr constant [17 x i8] c"/proc/self/statm\00", align 1
@.str.1 = private unnamed_addr constant [2 x i8] c"r\00", align 1
@.str.2 = private unnamed_addr constant [28 x i8] c"%lu %lu %lu %lu %lu %lu %lu\00", align 1

; Function Attrs: mustprogress uwtable
define dso_local noundef i64 @_ZN4VlOs13memUsageBytesEv() #7 {
  %1 = alloca i64, align 8
  %2 = alloca ptr, align 8
  %3 = alloca ptr, align 8
  %4 = alloca i32, align 4
  %5 = alloca i64, align 8
  %6 = alloca i64, align 8
  %7 = alloca i64, align 8
  %8 = alloca i64, align 8
  %9 = alloca i64, align 8
  %10 = alloca i64, align 8
  %11 = alloca i64, align 8
  %12 = alloca i32, align 4
  call void @llvm.lifetime.start.p0(i64 8, ptr %2) #3
  store ptr @.str, ptr %2, align 8, !tbaa !10
  call void @llvm.lifetime.start.p0(i64 8, ptr %3) #3
  %13 = call noalias ptr @fopen(ptr noundef @.str, ptr noundef @.str.1)
  store ptr %13, ptr %3, align 8, !tbaa !13
  %14 = load ptr, ptr %3, align 8, !tbaa !13
  %15 = icmp ne ptr %14, null
  br i1 %15, label %17, label %16

16:                                               ; preds = %0
  store i64 0, ptr %1, align 8
  store i32 1, ptr %4, align 4
  br label %38

17:                                               ; preds = %0
  call void @llvm.lifetime.start.p0(i64 8, ptr %5) #3
  call void @llvm.lifetime.start.p0(i64 8, ptr %6) #3
  call void @llvm.lifetime.start.p0(i64 8, ptr %7) #3
  call void @llvm.lifetime.start.p0(i64 8, ptr %8) #3
  call void @llvm.lifetime.start.p0(i64 8, ptr %9) #3
  call void @llvm.lifetime.start.p0(i64 8, ptr %10) #3
  call void @llvm.lifetime.start.p0(i64 8, ptr %11) #3
  call void @llvm.lifetime.start.p0(i64 4, ptr %12) #3
  %18 = load ptr, ptr %3, align 8, !tbaa !13
  %19 = call i32 (ptr, ptr, ...) @__isoc99_fscanf(ptr noundef %18, ptr noundef @.str.2, ptr noundef %5, ptr noundef %6, ptr noundef %7, ptr noundef %8, ptr noundef %9, ptr noundef %10, ptr noundef %11)
  store i32 %19, ptr %12, align 4, !tbaa !15
  %20 = load ptr, ptr %3, align 8, !tbaa !13
  %21 = call i32 @fclose(ptr noundef %20)
  %22 = load i32, ptr %12, align 4, !tbaa !15
  %23 = icmp ne i32 7, %22
  %24 = xor i1 %23, true
  %25 = xor i1 %24, true
  %26 = zext i1 %25 to i64
  %27 = call i64 @llvm.expect.i64(i64 %26, i64 0)
  %28 = icmp ne i64 %27, 0
  br i1 %28, label %29, label %30

29:                                               ; preds = %17
  store i64 0, ptr %1, align 8
  store i32 1, ptr %4, align 4
  br label %37

30:                                               ; preds = %17
  %31 = load i64, ptr %8, align 8, !tbaa !17
  %32 = load i64, ptr %10, align 8, !tbaa !17
  %33 = add i64 %31, %32
  %34 = call i32 @getpagesize() #18
  %35 = sext i32 %34 to i64
  %36 = mul i64 %33, %35
  store i64 %36, ptr %1, align 8
  store i32 1, ptr %4, align 4
  br label %37

37:                                               ; preds = %30, %29
  call void @llvm.lifetime.end.p0(i64 4, ptr %12) #3
  call void @llvm.lifetime.end.p0(i64 8, ptr %11) #3
  call void @llvm.lifetime.end.p0(i64 8, ptr %10) #3
  call void @llvm.lifetime.end.p0(i64 8, ptr %9) #3
  call void @llvm.lifetime.end.p0(i64 8, ptr %8) #3
  call void @llvm.lifetime.end.p0(i64 8, ptr %7) #3
  call void @llvm.lifetime.end.p0(i64 8, ptr %6) #3
  call void @llvm.lifetime.end.p0(i64 8, ptr %5) #3
  br label %38

38:                                               ; preds = %37, %16
  call void @llvm.lifetime.end.p0(i64 8, ptr %3) #3
  call void @llvm.lifetime.end.p0(i64 8, ptr %2) #3
  %39 = load i64, ptr %1, align 8
  ret i64 %39
}