; Function Attrs: mustprogress uwtable
define dso_local noundef i64 @_ZN4VlOs13memUsageBytesEv() #6 {
  %1 = alloca i64, align 8
  %2 = alloca i64, align 8
  %3 = alloca i64, align 8
  %4 = alloca i64, align 8
  %5 = alloca i64, align 8
  %6 = alloca i64, align 8
  %7 = alloca i64, align 8
  %8 = tail call noalias ptr @fopen(ptr noundef nonnull @.str, ptr noundef nonnull @.str.1)
  %.not = icmp eq ptr %8, null
  br i1 %.not, label %20, label %9

9:                                                ; preds = %0
  call void @llvm.lifetime.start.p0(i64 8, ptr nonnull %1) #28
  call void @llvm.lifetime.start.p0(i64 8, ptr nonnull %2) #28
  call void @llvm.lifetime.start.p0(i64 8, ptr nonnull %3) #28
  call void @llvm.lifetime.start.p0(i64 8, ptr nonnull %4) #28
  call void @llvm.lifetime.start.p0(i64 8, ptr nonnull %5) #28
  call void @llvm.lifetime.start.p0(i64 8, ptr nonnull %6) #28
  call void @llvm.lifetime.start.p0(i64 8, ptr nonnull %7) #28
  %10 = call i32 (ptr, ptr, ...) @__isoc99_fscanf(ptr noundef nonnull %8, ptr noundef nonnull @.str.2, ptr noundef nonnull %1, ptr noundef nonnull %2, ptr noundef nonnull %3, ptr noundef nonnull %4, ptr noundef nonnull %5, ptr noundef nonnull %6, ptr noundef nonnull %7)
  %11 = call i32 @fclose(ptr noundef nonnull %8)
  %.not5 = icmp eq i32 %10, 7
  br i1 %.not5, label %12, label %19, !prof !10

12:                                               ; preds = %9
  %13 = load i64, ptr %4, align 8, !tbaa !11
  %14 = load i64, ptr %6, align 8, !tbaa !11
  %15 = add i64 %14, %13
  %16 = tail call i32 @getpagesize() #29
  %17 = sext i32 %16 to i64
  %18 = mul i64 %15, %17
  br label %19

19:                                               ; preds = %9, %12
  %.1 = phi i64 [ %18, %12 ], [ 0, %9 ]
  call void @llvm.lifetime.end.p0(i64 8, ptr nonnull %7) #28
  call void @llvm.lifetime.end.p0(i64 8, ptr nonnull %6) #28
  call void @llvm.lifetime.end.p0(i64 8, ptr nonnull %5) #28
  call void @llvm.lifetime.end.p0(i64 8, ptr nonnull %4) #28
  call void @llvm.lifetime.end.p0(i64 8, ptr nonnull %3) #28
  call void @llvm.lifetime.end.p0(i64 8, ptr nonnull %2) #28
  call void @llvm.lifetime.end.p0(i64 8, ptr nonnull %1) #28
  br label %20

20:                                               ; preds = %0, %19
  %.0 = phi i64 [ %.1, %19 ], [ 0, %0 ]
  ret i64 %.0
}